; Function Attrs: mustprogress uwtable
define noundef nonnull align 8 dereferenceable(74) ptr @_ZN14duckdb_parquet11AesGcmCtrV1aSERKS0_(ptr noundef nonnull returned align 8 dereferenceable(74) %0, ptr noundef nonnull align 8 dereferenceable(74) %1) local_unnamed_addr #2 align 2 {
  %3 = getelementptr inbounds nuw i8, ptr %1, i64 8
  %4 = getelementptr inbounds nuw i8, ptr %0, i64 8
  tail call void @_ZNSt7__cxx1112basic_stringIcSt11char_traitsIcESaIcEE9_M_assignERKS4_(ptr noundef nonnull align 8 dereferenceable(32) %4, ptr noundef nonnull align 8 dereferenceable(32) %3)
  %5 = getelementptr inbounds nuw i8, ptr %1, i64 40
  %6 = getelementptr inbounds nuw i8, ptr %0, i64 40
  tail call void @_ZNSt7__cxx1112basic_stringIcSt11char_traitsIcESaIcEE9_M_assignERKS4_(ptr noundef nonnull align 8 dereferenceable(32) %6, ptr noundef nonnull align 8 dereferenceable(32) %5)
  %7 = getelementptr inbounds nuw i8, ptr %1, i64 72
  %8 = load i8, ptr %7, align 8, !tbaa !766, !range !137, !noundef !138
  %9 = getelementptr inbounds nuw i8, ptr %0, i64 72
  store i8 %8, ptr %9, align 8, !tbaa !766
  %10 = getelementptr inbounds nuw i8, ptr %1, i64 73
  %11 = getelementptr inbounds nuw i8, ptr %0, i64 73
  %12 = load i8, ptr %10, align 1, !tbaa !38
  store i8 %12, ptr %11, align 1, !tbaa !38
  ret ptr %0
}